; Function Attrs: nounwind uwtable
define internal ptr @des_dupctx(ptr noundef %0) #0 {
  %2 = tail call i32 @ossl_prov_is_running() #4
  %.not = icmp eq i32 %2, 0
  br i1 %.not, label %11, label %3

3:                                                ; preds = %1
  %4 = tail call noalias ptr @CRYPTO_malloc(i64 noundef 328, ptr noundef nonnull @.str, i32 noundef 55) #4
  %5 = icmp eq ptr %4, null
  br i1 %5, label %11, label %6

6:                                                ; preds = %3
  %7 = getelementptr inbounds nuw i8, ptr %0, i64 168
  %8 = load ptr, ptr %7, align 8, !tbaa !3
  %9 = getelementptr inbounds nuw i8, ptr %8, i64 16
  %10 = load ptr, ptr %9, align 8, !tbaa !14
  tail call void %10(ptr noundef nonnull %4, ptr noundef %0) #4
  br label %11

11:                                               ; preds = %3, %1, %6
  %.0 = phi ptr [ %4, %6 ], [ null, %1 ], [ null, %3 ]
  ret ptr %.0
}